target datalayout = "e-m:e-p270:32:32-p271:32:32-p272:64:64-i64:64-i128:128-f80:128-n8:16:32:64-S128"
target triple = "x86_64-pc-linux-gnu"

%"class.G1NUMAStats::NodeDataArray" = type { i32, i32, ptr }

; Function Attrs: mustprogress nounwind uwtable
define hidden noundef i64 @_ZN11G1NUMAStats13NodeDataArray3getEjj(ptr noundef nonnull align 8 dereferenceable(16) %0, i32 noundef %1, i32 noundef %2) #1 align 2 {
  %4 = alloca ptr, align 8
  %5 = alloca i32, align 4
  %6 = alloca i32, align 4
  store ptr %0, ptr %4, align 8
  store i32 %1, ptr %5, align 4
  store i32 %2, ptr %6, align 4
  %7 = load ptr, ptr %4, align 8
  %8 = getelementptr inbounds %"class.G1NUMAStats::NodeDataArray", ptr %7, i32 0, i32 2
  %9 = load ptr, ptr %8, align 8
  %10 = load i32, ptr %5, align 4
  %11 = zext i32 %10 to i64
  %12 = getelementptr inbounds ptr, ptr %9, i64 %11
  %13 = load ptr, ptr %12, align 8
  %14 = load i32, ptr %6, align 4
  %15 = zext i32 %14 to i64
  %16 = getelementptr inbounds i64, ptr %13, i64 %15
  %17 = load i64, ptr %16, align 8
  ret i64 %17
}