; Function Attrs: mustprogress nofree norecurse nosync nounwind willreturn memory(read, inaccessiblemem: none) uwtable
define hidden noundef i64 @_ZN11G1NUMAStats13NodeDataArray3getEjj(ptr nocapture noundef nonnull readonly align 8 dereferenceable(16) %0, i32 noundef %1, i32 noundef %2) local_unnamed_addr #5 align 2 {
  %4 = getelementptr inbounds i8, ptr %0, i64 8
  %5 = load ptr, ptr %4, align 8
  %6 = zext i32 %1 to i64
  %7 = getelementptr inbounds ptr, ptr %5, i64 %6
  %8 = load ptr, ptr %7, align 8
  %9 = zext i32 %2 to i64
  %10 = getelementptr inbounds i64, ptr %8, i64 %9
  %11 = load i64, ptr %10, align 8
  ret i64 %11
}